
bufbomb:     file format elf32-i386

Disassembly of section .init:

0804861c <_init>:
 804861c:	55                   	push   %ebp
 804861d:	89 e5                	mov    %esp,%ebp
 804861f:	83 ec 08             	sub    $0x8,%esp
 8048622:	e8 0d 02 00 00       	call   8048834 <call_gmon_start>
 8048627:	e8 94 02 00 00       	call   80488c0 <frame_dummy>
 804862c:	e8 9f 0e 00 00       	call   80494d0 <__do_global_ctors_aux>
 8048631:	c9                   	leave  
 8048632:	c3                   	ret    
Disassembly of section .plt:

08048634 <sprintf@plt-0x10>:
 8048634:	ff 35 e4 a0 04 08    	pushl  0x804a0e4
 804863a:	ff 25 e8 a0 04 08    	jmp    *0x804a0e8
 8048640:	00 00                	add    %al,(%eax)
	...

08048644 <sprintf@plt>:
 8048644:	ff 25 ec a0 04 08    	jmp    *0x804a0ec
 804864a:	68 00 00 00 00       	push   $0x0
 804864f:	e9 e0 ff ff ff       	jmp    8048634 <_init+0x18>

08048654 <srand@plt>:
 8048654:	ff 25 f0 a0 04 08    	jmp    *0x804a0f0
 804865a:	68 08 00 00 00       	push   $0x8
 804865f:	e9 d0 ff ff ff       	jmp    8048634 <_init+0x18>

08048664 <random@plt>:
 8048664:	ff 25 f4 a0 04 08    	jmp    *0x804a0f4
 804866a:	68 10 00 00 00       	push   $0x10
 804866f:	e9 c0 ff ff ff       	jmp    8048634 <_init+0x18>

08048674 <signal@plt>:
 8048674:	ff 25 f8 a0 04 08    	jmp    *0x804a0f8
 804867a:	68 18 00 00 00       	push   $0x18
 804867f:	e9 b0 ff ff ff       	jmp    8048634 <_init+0x18>

08048684 <__gmon_start__@plt>:
 8048684:	ff 25 fc a0 04 08    	jmp    *0x804a0fc
 804868a:	68 20 00 00 00       	push   $0x20
 804868f:	e9 a0 ff ff ff       	jmp    8048634 <_init+0x18>

08048694 <calloc@plt>:
 8048694:	ff 25 00 a1 04 08    	jmp    *0x804a100
 804869a:	68 28 00 00 00       	push   $0x28
 804869f:	e9 90 ff ff ff       	jmp    8048634 <_init+0x18>

080486a4 <system@plt>:
 80486a4:	ff 25 04 a1 04 08    	jmp    *0x804a104
 80486aa:	68 30 00 00 00       	push   $0x30
 80486af:	e9 80 ff ff ff       	jmp    8048634 <_init+0x18>

080486b4 <memset@plt>:
 80486b4:	ff 25 08 a1 04 08    	jmp    *0x804a108
 80486ba:	68 38 00 00 00       	push   $0x38
 80486bf:	e9 70 ff ff ff       	jmp    8048634 <_init+0x18>

080486c4 <__libc_start_main@plt>:
 80486c4:	ff 25 0c a1 04 08    	jmp    *0x804a10c
 80486ca:	68 40 00 00 00       	push   $0x40
 80486cf:	e9 60 ff ff ff       	jmp    8048634 <_init+0x18>

080486d4 <_IO_getc@plt>:
 80486d4:	ff 25 10 a1 04 08    	jmp    *0x804a110
 80486da:	68 48 00 00 00       	push   $0x48
 80486df:	e9 50 ff ff ff       	jmp    8048634 <_init+0x18>

080486e4 <__ctype_b_loc@plt>:
 80486e4:	ff 25 14 a1 04 08    	jmp    *0x804a114
 80486ea:	68 50 00 00 00       	push   $0x50
 80486ef:	e9 40 ff ff ff       	jmp    8048634 <_init+0x18>

080486f4 <fclose@plt>:
 80486f4:	ff 25 18 a1 04 08    	jmp    *0x804a118
 80486fa:	68 58 00 00 00       	push   $0x58
 80486ff:	e9 30 ff ff ff       	jmp    8048634 <_init+0x18>

08048704 <getopt@plt>:
 8048704:	ff 25 1c a1 04 08    	jmp    *0x804a11c
 804870a:	68 60 00 00 00       	push   $0x60
 804870f:	e9 20 ff ff ff       	jmp    8048634 <_init+0x18>

08048714 <fopen@plt>:
 8048714:	ff 25 20 a1 04 08    	jmp    *0x804a120
 804871a:	68 68 00 00 00       	push   $0x68
 804871f:	e9 10 ff ff ff       	jmp    8048634 <_init+0x18>

08048724 <alarm@plt>:
 8048724:	ff 25 24 a1 04 08    	jmp    *0x804a124
 804872a:	68 70 00 00 00       	push   $0x70
 804872f:	e9 00 ff ff ff       	jmp    8048634 <_init+0x18>

08048734 <strcpy@plt>:
 8048734:	ff 25 28 a1 04 08    	jmp    *0x804a128
 804873a:	68 78 00 00 00       	push   $0x78
 804873f:	e9 f0 fe ff ff       	jmp    8048634 <_init+0x18>

08048744 <printf@plt>:
 8048744:	ff 25 2c a1 04 08    	jmp    *0x804a12c
 804874a:	68 80 00 00 00       	push   $0x80
 804874f:	e9 e0 fe ff ff       	jmp    8048634 <_init+0x18>

08048754 <srandom@plt>:
 8048754:	ff 25 30 a1 04 08    	jmp    *0x804a130
 804875a:	68 88 00 00 00       	push   $0x88
 804875f:	e9 d0 fe ff ff       	jmp    8048634 <_init+0x18>

08048764 <fwrite@plt>:
 8048764:	ff 25 34 a1 04 08    	jmp    *0x804a134
 804876a:	68 90 00 00 00       	push   $0x90
 804876f:	e9 c0 fe ff ff       	jmp    8048634 <_init+0x18>

08048774 <fprintf@plt>:
 8048774:	ff 25 38 a1 04 08    	jmp    *0x804a138
 804877a:	68 98 00 00 00       	push   $0x98
 804877f:	e9 b0 fe ff ff       	jmp    8048634 <_init+0x18>

08048784 <remove@plt>:
 8048784:	ff 25 3c a1 04 08    	jmp    *0x804a13c
 804878a:	68 a0 00 00 00       	push   $0xa0
 804878f:	e9 a0 fe ff ff       	jmp    8048634 <_init+0x18>

08048794 <cuserid@plt>:
 8048794:	ff 25 40 a1 04 08    	jmp    *0x804a140
 804879a:	68 a8 00 00 00       	push   $0xa8
 804879f:	e9 90 fe ff ff       	jmp    8048634 <_init+0x18>

080487a4 <fputc@plt>:
 80487a4:	ff 25 44 a1 04 08    	jmp    *0x804a144
 80487aa:	68 b0 00 00 00       	push   $0xb0
 80487af:	e9 80 fe ff ff       	jmp    8048634 <_init+0x18>

080487b4 <puts@plt>:
 80487b4:	ff 25 48 a1 04 08    	jmp    *0x804a148
 80487ba:	68 b8 00 00 00       	push   $0xb8
 80487bf:	e9 70 fe ff ff       	jmp    8048634 <_init+0x18>

080487c4 <rand@plt>:
 80487c4:	ff 25 4c a1 04 08    	jmp    *0x804a14c
 80487ca:	68 c0 00 00 00       	push   $0xc0
 80487cf:	e9 60 fe ff ff       	jmp    8048634 <_init+0x18>

080487d4 <tempnam@plt>:
 80487d4:	ff 25 50 a1 04 08    	jmp    *0x804a150
 80487da:	68 c8 00 00 00       	push   $0xc8
 80487df:	e9 50 fe ff ff       	jmp    8048634 <_init+0x18>

080487e4 <__strdup@plt>:
 80487e4:	ff 25 54 a1 04 08    	jmp    *0x804a154
 80487ea:	68 d0 00 00 00       	push   $0xd0
 80487ef:	e9 40 fe ff ff       	jmp    8048634 <_init+0x18>

080487f4 <exit@plt>:
 80487f4:	ff 25 58 a1 04 08    	jmp    *0x804a158
 80487fa:	68 d8 00 00 00       	push   $0xd8
 80487ff:	e9 30 fe ff ff       	jmp    8048634 <_init+0x18>
Disassembly of section .text:

08048810 <_start>:
 8048810:	31 ed                	xor    %ebp,%ebp
 8048812:	5e                   	pop    %esi
 8048813:	89 e1                	mov    %esp,%ecx
 8048815:	83 e4 f0             	and    $0xfffffff0,%esp
 8048818:	50                   	push   %eax
 8048819:	54                   	push   %esp
 804881a:	52                   	push   %edx
 804881b:	68 50 94 04 08       	push   $0x8049450
 8048820:	68 60 94 04 08       	push   $0x8049460
 8048825:	51                   	push   %ecx
 8048826:	56                   	push   %esi
 8048827:	68 10 91 04 08       	push   $0x8049110
 804882c:	e8 93 fe ff ff       	call   80486c4 <__libc_start_main@plt>
 8048831:	f4                   	hlt    
 8048832:	90                   	nop    
 8048833:	90                   	nop    

08048834 <call_gmon_start>:
 8048834:	55                   	push   %ebp
 8048835:	89 e5                	mov    %esp,%ebp
 8048837:	53                   	push   %ebx
 8048838:	83 ec 04             	sub    $0x4,%esp
 804883b:	e8 00 00 00 00       	call   8048840 <call_gmon_start+0xc>
 8048840:	5b                   	pop    %ebx
 8048841:	81 c3 a0 18 00 00    	add    $0x18a0,%ebx
 8048847:	8b 93 fc ff ff ff    	mov    0xfffffffc(%ebx),%edx
 804884d:	85 d2                	test   %edx,%edx
 804884f:	74 05                	je     8048856 <call_gmon_start+0x22>
 8048851:	e8 2e fe ff ff       	call   8048684 <__gmon_start__@plt>
 8048856:	58                   	pop    %eax
 8048857:	5b                   	pop    %ebx
 8048858:	c9                   	leave  
 8048859:	c3                   	ret    
 804885a:	90                   	nop    
 804885b:	90                   	nop    
 804885c:	90                   	nop    
 804885d:	90                   	nop    
 804885e:	90                   	nop    
 804885f:	90                   	nop    

08048860 <__do_global_dtors_aux>:
 8048860:	55                   	push   %ebp
 8048861:	89 e5                	mov    %esp,%ebp
 8048863:	53                   	push   %ebx
 8048864:	83 ec 04             	sub    $0x4,%esp
 8048867:	80 3d 8c a1 04 08 00 	cmpb   $0x0,0x804a18c
 804886e:	75 3f                	jne    80488af <__do_global_dtors_aux+0x4f>
 8048870:	b8 0c a0 04 08       	mov    $0x804a00c,%eax
 8048875:	2d 08 a0 04 08       	sub    $0x804a008,%eax
 804887a:	c1 f8 02             	sar    $0x2,%eax
 804887d:	8d 58 ff             	lea    0xffffffff(%eax),%ebx
 8048880:	a1 88 a1 04 08       	mov    0x804a188,%eax
 8048885:	39 c3                	cmp    %eax,%ebx
 8048887:	76 1f                	jbe    80488a8 <__do_global_dtors_aux+0x48>
 8048889:	8d b4 26 00 00 00 00 	lea    0x0(%esi),%esi
 8048890:	83 c0 01             	add    $0x1,%eax
 8048893:	a3 88 a1 04 08       	mov    %eax,0x804a188
 8048898:	ff 14 85 08 a0 04 08 	call   *0x804a008(,%eax,4)
 804889f:	a1 88 a1 04 08       	mov    0x804a188,%eax
 80488a4:	39 c3                	cmp    %eax,%ebx
 80488a6:	77 e8                	ja     8048890 <__do_global_dtors_aux+0x30>
 80488a8:	c6 05 8c a1 04 08 01 	movb   $0x1,0x804a18c
 80488af:	83 c4 04             	add    $0x4,%esp
 80488b2:	5b                   	pop    %ebx
 80488b3:	5d                   	pop    %ebp
 80488b4:	c3                   	ret    
 80488b5:	8d 74 26 00          	lea    0x0(%esi),%esi
 80488b9:	8d bc 27 00 00 00 00 	lea    0x0(%edi),%edi

080488c0 <frame_dummy>:
 80488c0:	55                   	push   %ebp
 80488c1:	89 e5                	mov    %esp,%ebp
 80488c3:	83 ec 08             	sub    $0x8,%esp
 80488c6:	a1 10 a0 04 08       	mov    0x804a010,%eax
 80488cb:	85 c0                	test   %eax,%eax
 80488cd:	74 12                	je     80488e1 <frame_dummy+0x21>
 80488cf:	b8 00 00 00 00       	mov    $0x0,%eax
 80488d4:	85 c0                	test   %eax,%eax
 80488d6:	74 09                	je     80488e1 <frame_dummy+0x21>
 80488d8:	c7 04 24 10 a0 04 08 	movl   $0x804a010,(%esp)
 80488df:	ff d0                	call   *%eax
 80488e1:	c9                   	leave  
 80488e2:	c3                   	ret    
 80488e3:	90                   	nop    
 80488e4:	90                   	nop    
 80488e5:	90                   	nop    
 80488e6:	90                   	nop    
 80488e7:	90                   	nop    
 80488e8:	90                   	nop    
 80488e9:	90                   	nop    
 80488ea:	90                   	nop    
 80488eb:	90                   	nop    
 80488ec:	90                   	nop    
 80488ed:	90                   	nop    
 80488ee:	90                   	nop    
 80488ef:	90                   	nop    

080488f0 <save_char>:
 80488f0:	8b 0d c0 a1 04 08    	mov    0x804a1c0,%ecx
 80488f6:	55                   	push   %ebp
 80488f7:	89 e5                	mov    %esp,%ebp
 80488f9:	53                   	push   %ebx
 80488fa:	89 c3                	mov    %eax,%ebx
 80488fc:	81 f9 ff 03 00 00    	cmp    $0x3ff,%ecx
 8048902:	7f 37                	jg     804893b <save_char+0x4b>
 8048904:	c0 f8 04             	sar    $0x4,%al
 8048907:	83 e0 0f             	and    $0xf,%eax
 804890a:	0f b6 80 a4 9a 04 08 	movzbl 0x8049aa4(%eax),%eax
 8048911:	8d 14 49             	lea    (%ecx,%ecx,2),%edx
 8048914:	c6 82 e2 a1 04 08 20 	movb   $0x20,0x804a1e2(%edx)
 804891b:	88 82 e0 a1 04 08    	mov    %al,0x804a1e0(%edx)
 8048921:	89 d8                	mov    %ebx,%eax
 8048923:	83 e0 0f             	and    $0xf,%eax
 8048926:	0f b6 80 a4 9a 04 08 	movzbl 0x8049aa4(%eax),%eax
 804892d:	88 82 e1 a1 04 08    	mov    %al,0x804a1e1(%edx)
 8048933:	8d 41 01             	lea    0x1(%ecx),%eax
 8048936:	a3 c0 a1 04 08       	mov    %eax,0x804a1c0
 804893b:	5b                   	pop    %ebx
 804893c:	5d                   	pop    %ebp
 804893d:	c3                   	ret    
 804893e:	66 90                	xchg   %ax,%ax

08048940 <entry_check>:
 8048940:	55                   	push   %ebp
 8048941:	89 e5                	mov    %esp,%ebp
 8048943:	8b 45 08             	mov    0x8(%ebp),%eax
 8048946:	5d                   	pop    %ebp
 8048947:	a3 64 a1 04 08       	mov    %eax,0x804a164
 804894c:	c3                   	ret    
 804894d:	8d 76 00             	lea    0x0(%esi),%esi

08048950 <illegalhandler>:
 8048950:	55                   	push   %ebp
 8048951:	89 e5                	mov    %esp,%ebp
 8048953:	83 ec 08             	sub    $0x8,%esp
 8048956:	c7 04 24 20 95 04 08 	movl   $0x8049520,(%esp)
 804895d:	e8 52 fe ff ff       	call   80487b4 <puts@plt>
 8048962:	c7 04 24 64 98 04 08 	movl   $0x8049864,(%esp)
 8048969:	e8 46 fe ff ff       	call   80487b4 <puts@plt>
 804896e:	c7 04 24 00 00 00 00 	movl   $0x0,(%esp)
 8048975:	e8 7a fe ff ff       	call   80487f4 <exit@plt>
 804897a:	8d b6 00 00 00 00    	lea    0x0(%esi),%esi

08048980 <alarmhandler>:
 8048980:	55                   	push   %ebp
 8048981:	89 e5                	mov    %esp,%ebp
 8048983:	83 ec 08             	sub    $0x8,%esp
 8048986:	a1 68 a1 04 08       	mov    0x804a168,%eax
 804898b:	c7 04 24 4c 95 04 08 	movl   $0x804954c,(%esp)
 8048992:	89 44 24 04          	mov    %eax,0x4(%esp)
 8048996:	e8 a9 fd ff ff       	call   8048744 <printf@plt>
 804899b:	c7 04 24 64 98 04 08 	movl   $0x8049864,(%esp)
 80489a2:	e8 0d fe ff ff       	call   80487b4 <puts@plt>
 80489a7:	c7 04 24 00 00 00 00 	movl   $0x0,(%esp)
 80489ae:	e8 41 fe ff ff       	call   80487f4 <exit@plt>
 80489b3:	8d b6 00 00 00 00    	lea    0x0(%esi),%esi
 80489b9:	8d bc 27 00 00 00 00 	lea    0x0(%edi),%edi

080489c0 <seghandler>:
 80489c0:	55                   	push   %ebp
 80489c1:	89 e5                	mov    %esp,%ebp
 80489c3:	83 ec 08             	sub    $0x8,%esp
 80489c6:	c7 04 24 80 95 04 08 	movl   $0x8049580,(%esp)
 80489cd:	e8 e2 fd ff ff       	call   80487b4 <puts@plt>
 80489d2:	c7 04 24 64 98 04 08 	movl   $0x8049864,(%esp)
 80489d9:	e8 d6 fd ff ff       	call   80487b4 <puts@plt>
 80489de:	c7 04 24 00 00 00 00 	movl   $0x0,(%esp)
 80489e5:	e8 0a fe ff ff       	call   80487f4 <exit@plt>
 80489ea:	8d b6 00 00 00 00    	lea    0x0(%esi),%esi

080489f0 <bushandler>:
 80489f0:	55                   	push   %ebp
 80489f1:	89 e5                	mov    %esp,%ebp
 80489f3:	83 ec 08             	sub    $0x8,%esp
 80489f6:	c7 04 24 a8 95 04 08 	movl   $0x80495a8,(%esp)
 80489fd:	e8 b2 fd ff ff       	call   80487b4 <puts@plt>
 8048a02:	c7 04 24 64 98 04 08 	movl   $0x8049864,(%esp)
 8048a09:	e8 a6 fd ff ff       	call   80487b4 <puts@plt>
 8048a0e:	c7 04 24 00 00 00 00 	movl   $0x0,(%esp)
 8048a15:	e8 da fd ff ff       	call   80487f4 <exit@plt>
 8048a1a:	8d b6 00 00 00 00    	lea    0x0(%esi),%esi

08048a20 <usage>:
 8048a20:	55                   	push   %ebp
 8048a21:	89 e5                	mov    %esp,%ebp
 8048a23:	83 ec 08             	sub    $0x8,%esp
 8048a26:	89 44 24 04          	mov    %eax,0x4(%esp)
 8048a2a:	c7 04 24 c8 95 04 08 	movl   $0x80495c8,(%esp)
 8048a31:	e8 0e fd ff ff       	call   8048744 <printf@plt>
 8048a36:	c7 04 24 7a 98 04 08 	movl   $0x804987a,(%esp)
 8048a3d:	e8 72 fd ff ff       	call   80487b4 <puts@plt>
 8048a42:	c7 04 24 98 98 04 08 	movl   $0x8049898,(%esp)
 8048a49:	e8 66 fd ff ff       	call   80487b4 <puts@plt>
 8048a4e:	c7 04 24 ec 95 04 08 	movl   $0x80495ec,(%esp)
 8048a55:	e8 5a fd ff ff       	call   80487b4 <puts@plt>
 8048a5a:	c7 04 24 14 96 04 08 	movl   $0x8049614,(%esp)
 8048a61:	e8 4e fd ff ff       	call   80487b4 <puts@plt>
 8048a66:	c7 04 24 00 00 00 00 	movl   $0x0,(%esp)
 8048a6d:	e8 82 fd ff ff       	call   80487f4 <exit@plt>
 8048a72:	8d b4 26 00 00 00 00 	lea    0x0(%esi),%esi
 8048a79:	8d bc 27 00 00 00 00 	lea    0x0(%edi),%edi

08048a80 <validate>:
 8048a80:	55                   	push   %ebp
 8048a81:	89 e5                	mov    %esp,%ebp
 8048a83:	81 ec 48 01 00 00    	sub    $0x148,%esp
 8048a89:	8b 0d b0 a1 04 08    	mov    0x804a1b0,%ecx
 8048a8f:	89 75 f8             	mov    %esi,0xfffffff8(%ebp)
 8048a92:	8b 75 08             	mov    0x8(%ebp),%esi
 8048a95:	89 5d f4             	mov    %ebx,0xfffffff4(%ebp)
 8048a98:	89 7d fc             	mov    %edi,0xfffffffc(%ebp)
 8048a9b:	85 c9                	test   %ecx,%ecx
 8048a9d:	0f 84 29 02 00 00    	je     8048ccc <validate+0x24c>
 8048aa3:	83 fe 04             	cmp    $0x4,%esi
 8048aa6:	77 68                	ja     8048b10 <validate+0x90>
 8048aa8:	3b 35 64 a1 04 08    	cmp    0x804a164,%esi
 8048aae:	74 20                	je     8048ad0 <validate+0x50>
 8048ab0:	c7 04 24 8c 96 04 08 	movl   $0x804968c,(%esp)
 8048ab7:	e8 f8 fc ff ff       	call   80487b4 <puts@plt>
 8048abc:	8d 74 26 00          	lea    0x0(%esi),%esi
 8048ac0:	8b 5d f4             	mov    0xfffffff4(%ebp),%ebx
 8048ac3:	8b 75 f8             	mov    0xfffffff8(%ebp),%esi
 8048ac6:	8b 7d fc             	mov    0xfffffffc(%ebp),%edi
 8048ac9:	89 ec                	mov    %ebp,%esp
 8048acb:	5d                   	pop    %ebp
 8048acc:	c3                   	ret    
 8048acd:	8d 76 00             	lea    0x0(%esi),%esi
 8048ad0:	85 f6                	test   %esi,%esi
 8048ad2:	c7 05 b8 a1 04 08 01 	movl   $0x1,0x804a1b8
 8048ad9:	00 00 00 
 8048adc:	0f 84 a1 01 00 00    	je     8048c83 <validate+0x203>
 8048ae2:	83 fe 01             	cmp    $0x1,%esi
 8048ae5:	0f 84 03 02 00 00    	je     8048cee <validate+0x26e>
 8048aeb:	8b 04 b5 6c a1 04 08 	mov    0x804a16c(,%esi,4),%eax
 8048af2:	83 e8 01             	sub    $0x1,%eax
 8048af5:	85 c0                	test   %eax,%eax
 8048af7:	89 04 b5 6c a1 04 08 	mov    %eax,0x804a16c(,%esi,4)
 8048afe:	7e 20                	jle    8048b20 <validate+0xa0>
 8048b00:	c7 04 24 c3 98 04 08 	movl   $0x80498c3,(%esp)
 8048b07:	e8 a8 fc ff ff       	call   80487b4 <puts@plt>
 8048b0c:	eb b2                	jmp    8048ac0 <validate+0x40>
 8048b0e:	66 90                	xchg   %ax,%ax
 8048b10:	c7 04 24 64 96 04 08 	movl   $0x8049664,(%esp)
 8048b17:	e8 98 fc ff ff       	call   80487b4 <puts@plt>
 8048b1c:	eb a2                	jmp    8048ac0 <validate+0x40>
 8048b1e:	66 90                	xchg   %ax,%ax
 8048b20:	8b 15 b4 a1 04 08    	mov    0x804a1b4,%edx
 8048b26:	85 d2                	test   %edx,%edx
 8048b28:	0f 85 ea 01 00 00    	jne    8048d18 <validate+0x298>
 8048b2e:	a1 60 a1 04 08       	mov    0x804a160,%eax
 8048b33:	85 c0                	test   %eax,%eax
 8048b35:	0f 84 a2 01 00 00    	je     8048cdd <validate+0x25d>
 8048b3b:	c7 44 24 04 d4 98 04 	movl   $0x80498d4,0x4(%esp)
 8048b42:	08 
 8048b43:	c7 04 24 00 00 00 00 	movl   $0x0,(%esp)
 8048b4a:	e8 85 fc ff ff       	call   80487d4 <tempnam@plt>
 8048b4f:	c7 44 24 04 db 98 04 	movl   $0x80498db,0x4(%esp)
 8048b56:	08 
 8048b57:	89 85 e0 fe ff ff    	mov    %eax,0xfffffee0(%ebp)
 8048b5d:	89 04 24             	mov    %eax,(%esp)
 8048b60:	e8 af fb ff ff       	call   8048714 <fopen@plt>
 8048b65:	85 c0                	test   %eax,%eax
 8048b67:	89 c3                	mov    %eax,%ebx
 8048b69:	0f 84 e4 01 00 00    	je     8048d53 <validate+0x2d3>
 8048b6f:	89 44 24 0c          	mov    %eax,0xc(%esp)
 8048b73:	c7 44 24 08 1b 00 00 	movl   $0x1b,0x8(%esp)
 8048b7a:	00 
 8048b7b:	c7 44 24 04 01 00 00 	movl   $0x1,0x4(%esp)
 8048b82:	00 
 8048b83:	c7 04 24 dd 98 04 08 	movl   $0x80498dd,(%esp)
 8048b8a:	e8 d5 fb ff ff       	call   8048764 <fwrite@plt>
 8048b8f:	89 5c 24 04          	mov    %ebx,0x4(%esp)
 8048b93:	c7 04 24 0a 00 00 00 	movl   $0xa,(%esp)
 8048b9a:	e8 05 fc ff ff       	call   80487a4 <fputc@plt>
 8048b9f:	c7 04 24 00 00 00 00 	movl   $0x0,(%esp)
 8048ba6:	e8 e9 fb ff ff       	call   8048794 <cuserid@plt>
 8048bab:	85 c0                	test   %eax,%eax
 8048bad:	0f 84 87 01 00 00    	je     8048d3a <validate+0x2ba>
 8048bb3:	8d 7d eb             	lea    0xffffffeb(%ebp),%edi
 8048bb6:	89 44 24 04          	mov    %eax,0x4(%esp)
 8048bba:	89 3c 24             	mov    %edi,(%esp)
 8048bbd:	e8 72 fb ff ff       	call   8048734 <strcpy@plt>
 8048bc2:	89 1c 24             	mov    %ebx,(%esp)
 8048bc5:	89 7c 24 08          	mov    %edi,0x8(%esp)
 8048bc9:	c7 44 24 04 f9 98 04 	movl   $0x80498f9,0x4(%esp)
 8048bd0:	08 
 8048bd1:	e8 9e fb ff ff       	call   8048774 <fprintf@plt>
 8048bd6:	a1 ac a1 04 08       	mov    0x804a1ac,%eax
 8048bdb:	89 1c 24             	mov    %ebx,(%esp)
 8048bde:	c7 44 24 1c 00 00 00 	movl   $0x0,0x1c(%esp)
 8048be5:	00 
 8048be6:	c7 44 24 18 e0 a1 04 	movl   $0x804a1e0,0x18(%esp)
 8048bed:	08 
 8048bee:	89 44 24 14          	mov    %eax,0x14(%esp)
 8048bf2:	a1 b0 a1 04 08       	mov    0x804a1b0,%eax
 8048bf7:	89 74 24 10          	mov    %esi,0x10(%esp)
 8048bfb:	c7 44 24 08 6f 3b 00 	movl   $0x3b6f,0x8(%esp)
 8048c02:	00 
 8048c03:	c7 44 24 04 fc 96 04 	movl   $0x80496fc,0x4(%esp)
 8048c0a:	08 
 8048c0b:	89 44 24 0c          	mov    %eax,0xc(%esp)
 8048c0f:	e8 60 fb ff ff       	call   8048774 <fprintf@plt>
 8048c14:	89 1c 24             	mov    %ebx,(%esp)
 8048c17:	8d 9d eb fe ff ff    	lea    0xfffffeeb(%ebp),%ebx
 8048c1d:	e8 d2 fa ff ff       	call   80486f4 <fclose@plt>
 8048c22:	8b 85 e0 fe ff ff    	mov    0xfffffee0(%ebp),%eax
 8048c28:	c7 44 24 14 07 99 04 	movl   $0x8049907,0x14(%esp)
 8048c2f:	08 
 8048c30:	c7 44 24 10 1e 99 04 	movl   $0x804991e,0x10(%esp)
 8048c37:	08 
 8048c38:	c7 44 24 0c 23 99 04 	movl   $0x8049923,0xc(%esp)
 8048c3f:	08 
 8048c40:	89 44 24 08          	mov    %eax,0x8(%esp)
 8048c44:	c7 44 24 04 3a 99 04 	movl   $0x804993a,0x4(%esp)
 8048c4b:	08 
 8048c4c:	89 1c 24             	mov    %ebx,(%esp)
 8048c4f:	e8 f0 f9 ff ff       	call   8048644 <sprintf@plt>
 8048c54:	89 1c 24             	mov    %ebx,(%esp)
 8048c57:	e8 48 fa ff ff       	call   80486a4 <system@plt>
 8048c5c:	85 c0                	test   %eax,%eax
 8048c5e:	0f 85 c5 00 00 00    	jne    8048d29 <validate+0x2a9>
 8048c64:	c7 04 24 4d 99 04 08 	movl   $0x804994d,(%esp)
 8048c6b:	e8 44 fb ff ff       	call   80487b4 <puts@plt>
 8048c70:	8b 85 e0 fe ff ff    	mov    0xfffffee0(%ebp),%eax
 8048c76:	89 04 24             	mov    %eax,(%esp)
 8048c79:	e8 06 fb ff ff       	call   8048784 <remove@plt>
 8048c7e:	e9 3d fe ff ff       	jmp    8048ac0 <validate+0x40>
 8048c83:	c7 44 24 04 af 98 04 	movl   $0x80498af,0x4(%esp)
 8048c8a:	08 
 8048c8b:	c7 04 24 b2 98 04 08 	movl   $0x80498b2,(%esp)
 8048c92:	e8 7d fa ff ff       	call   8048714 <fopen@plt>
 8048c97:	85 c0                	test   %eax,%eax
 8048c99:	89 c3                	mov    %eax,%ebx
 8048c9b:	0f 84 4a fe ff ff    	je     8048aeb <validate+0x6b>
 8048ca1:	a1 ac a1 04 08       	mov    0x804a1ac,%eax
 8048ca6:	35 78 56 34 12       	xor    $0x12345678,%eax
 8048cab:	89 44 24 08          	mov    %eax,0x8(%esp)
 8048caf:	c7 44 24 04 b9 98 04 	movl   $0x80498b9,0x4(%esp)
 8048cb6:	08 
 8048cb7:	89 1c 24             	mov    %ebx,(%esp)
 8048cba:	e8 b5 fa ff ff       	call   8048774 <fprintf@plt>
 8048cbf:	89 1c 24             	mov    %ebx,(%esp)
 8048cc2:	e8 2d fa ff ff       	call   80486f4 <fclose@plt>
 8048cc7:	e9 1f fe ff ff       	jmp    8048aeb <validate+0x6b>
 8048ccc:	c7 04 24 38 96 04 08 	movl   $0x8049638,(%esp)
 8048cd3:	e8 dc fa ff ff       	call   80487b4 <puts@plt>
 8048cd8:	e9 e3 fd ff ff       	jmp    8048ac0 <validate+0x40>
 8048cdd:	c7 04 24 5c 97 04 08 	movl   $0x804975c,(%esp)
 8048ce4:	e8 cb fa ff ff       	call   80487b4 <puts@plt>
 8048ce9:	e9 d2 fd ff ff       	jmp    8048ac0 <validate+0x40>
 8048cee:	c7 44 24 04 af 98 04 	movl   $0x80498af,0x4(%esp)
 8048cf5:	08 
 8048cf6:	c7 04 24 bc 98 04 08 	movl   $0x80498bc,(%esp)
 8048cfd:	e8 12 fa ff ff       	call   8048714 <fopen@plt>
 8048d02:	85 c0                	test   %eax,%eax
 8048d04:	89 c3                	mov    %eax,%ebx
 8048d06:	0f 84 df fd ff ff    	je     8048aeb <validate+0x6b>
 8048d0c:	a1 ac a1 04 08       	mov    0x804a1ac,%eax
 8048d11:	35 21 43 65 87       	xor    $0x87654321,%eax
 8048d16:	eb 93                	jmp    8048cab <validate+0x22b>
 8048d18:	c7 04 24 ce 98 04 08 	movl   $0x80498ce,(%esp)
 8048d1f:	e8 90 fa ff ff       	call   80487b4 <puts@plt>
 8048d24:	e9 97 fd ff ff       	jmp    8048ac0 <validate+0x40>
 8048d29:	c7 04 24 1c 97 04 08 	movl   $0x804971c,(%esp)
 8048d30:	e8 7f fa ff ff       	call   80487b4 <puts@plt>
 8048d35:	e9 36 ff ff ff       	jmp    8048c70 <validate+0x1f0>
 8048d3a:	8d 7d eb             	lea    0xffffffeb(%ebp),%edi
 8048d3d:	c7 45 eb 6e 6f 62 6f 	movl   $0x6f626f6e,0xffffffeb(%ebp)
 8048d44:	66 c7 45 ef 64 79    	movw   $0x7964,0xffffffef(%ebp)
 8048d4a:	c6 45 f1 00          	movb   $0x0,0xfffffff1(%ebp)
 8048d4e:	e9 6f fe ff ff       	jmp    8048bc2 <validate+0x142>
 8048d53:	c7 04 24 c8 96 04 08 	movl   $0x80496c8,(%esp)
 8048d5a:	e8 e5 f9 ff ff       	call   8048744 <printf@plt>
 8048d5f:	c7 04 24 01 00 00 00 	movl   $0x1,(%esp)
 8048d66:	e8 89 fa ff ff       	call   80487f4 <exit@plt>
 8048d6b:	90                   	nop    
 8048d6c:	8d 74 26 00          	lea    0x0(%esi),%esi

08048d70 <bang>:
 8048d70:	55                   	push   %ebp
 8048d71:	89 e5                	mov    %esp,%ebp
 8048d73:	83 ec 08             	sub    $0x8,%esp
 8048d76:	c7 04 24 02 00 00 00 	movl   $0x2,(%esp)
 8048d7d:	e8 be fb ff ff       	call   8048940 <entry_check>
 8048d82:	a1 bc a1 04 08       	mov    0x804a1bc,%eax
 8048d87:	3b 05 ac a1 04 08    	cmp    0x804a1ac,%eax
 8048d8d:	74 21                	je     8048db0 <bang+0x40>
 8048d8f:	89 44 24 04          	mov    %eax,0x4(%esp)
 8048d93:	c7 04 24 57 99 04 08 	movl   $0x8049957,(%esp)
 8048d9a:	e8 a5 f9 ff ff       	call   8048744 <printf@plt>
 8048d9f:	c7 04 24 00 00 00 00 	movl   $0x0,(%esp)
 8048da6:	e8 49 fa ff ff       	call   80487f4 <exit@plt>
 8048dab:	90                   	nop    
 8048dac:	8d 74 26 00          	lea    0x0(%esi),%esi
 8048db0:	89 44 24 04          	mov    %eax,0x4(%esp)
 8048db4:	c7 04 24 a8 97 04 08 	movl   $0x80497a8,(%esp)
 8048dbb:	e8 84 f9 ff ff       	call   8048744 <printf@plt>
 8048dc0:	c7 04 24 02 00 00 00 	movl   $0x2,(%esp)
 8048dc7:	e8 b4 fc ff ff       	call   8048a80 <validate>
 8048dcc:	eb d1                	jmp    8048d9f <bang+0x2f>
 8048dce:	66 90                	xchg   %ax,%ax

08048dd0 <fizz>:
 8048dd0:	55                   	push   %ebp
 8048dd1:	89 e5                	mov    %esp,%ebp
 8048dd3:	53                   	push   %ebx
 8048dd4:	83 ec 14             	sub    $0x14,%esp
 8048dd7:	8b 5d 08             	mov    0x8(%ebp),%ebx
 8048dda:	c7 04 24 01 00 00 00 	movl   $0x1,(%esp)
 8048de1:	e8 5a fb ff ff       	call   8048940 <entry_check>
 8048de6:	3b 1d ac a1 04 08    	cmp    0x804a1ac,%ebx
 8048dec:	74 22                	je     8048e10 <fizz+0x40>
 8048dee:	89 5c 24 04          	mov    %ebx,0x4(%esp)
 8048df2:	c7 04 24 d0 97 04 08 	movl   $0x80497d0,(%esp)
 8048df9:	e8 46 f9 ff ff       	call   8048744 <printf@plt>
 8048dfe:	c7 04 24 00 00 00 00 	movl   $0x0,(%esp)
 8048e05:	e8 ea f9 ff ff       	call   80487f4 <exit@plt>
 8048e0a:	8d b6 00 00 00 00    	lea    0x0(%esi),%esi
 8048e10:	89 5c 24 04          	mov    %ebx,0x4(%esp)
 8048e14:	c7 04 24 75 99 04 08 	movl   $0x8049975,(%esp)
 8048e1b:	e8 24 f9 ff ff       	call   8048744 <printf@plt>
 8048e20:	c7 04 24 01 00 00 00 	movl   $0x1,(%esp)
 8048e27:	e8 54 fc ff ff       	call   8048a80 <validate>
 8048e2c:	eb d0                	jmp    8048dfe <fizz+0x2e>
 8048e2e:	66 90                	xchg   %ax,%ax

08048e30 <smoke>:
 8048e30:	55                   	push   %ebp
 8048e31:	89 e5                	mov    %esp,%ebp
 8048e33:	83 ec 08             	sub    $0x8,%esp
 8048e36:	c7 04 24 00 00 00 00 	movl   $0x0,(%esp)
 8048e3d:	e8 fe fa ff ff       	call   8048940 <entry_check>
 8048e42:	c7 04 24 93 99 04 08 	movl   $0x8049993,(%esp)
 8048e49:	e8 66 f9 ff ff       	call   80487b4 <puts@plt>
 8048e4e:	c7 04 24 00 00 00 00 	movl   $0x0,(%esp)
 8048e55:	e8 26 fc ff ff       	call   8048a80 <validate>
 8048e5a:	c7 04 24 00 00 00 00 	movl   $0x0,(%esp)
 8048e61:	e8 8e f9 ff ff       	call   80487f4 <exit@plt>
 8048e66:	8d 76 00             	lea    0x0(%esi),%esi
 8048e69:	8d bc 27 00 00 00 00 	lea    0x0(%edi),%edi

08048e70 <Gets>:
 8048e70:	55                   	push   %ebp
 8048e71:	89 e5                	mov    %esp,%ebp
 8048e73:	57                   	push   %edi
 8048e74:	56                   	push   %esi
 8048e75:	53                   	push   %ebx
 8048e76:	83 ec 0c             	sub    $0xc,%esp
 8048e79:	8b 1d a8 a1 04 08    	mov    0x804a1a8,%ebx
 8048e7f:	c7 05 c0 a1 04 08 00 	movl   $0x0,0x804a1c0
 8048e86:	00 00 00 
 8048e89:	8b 75 08             	mov    0x8(%ebp),%esi
 8048e8c:	85 db                	test   %ebx,%ebx
 8048e8e:	74 72                	je     8048f02 <Gets+0x92>
 8048e90:	bf 01 00 00 00       	mov    $0x1,%edi
 8048e95:	c7 45 f0 00 00 00 00 	movl   $0x0,0xfffffff0(%ebp)
 8048e9c:	8d 74 26 00          	lea    0x0(%esi),%esi
 8048ea0:	a1 a0 a1 04 08       	mov    0x804a1a0,%eax
 8048ea5:	89 04 24             	mov    %eax,(%esp)
 8048ea8:	e8 27 f8 ff ff       	call   80486d4 <_IO_getc@plt>
 8048ead:	83 f8 ff             	cmp    $0xffffffff,%eax
 8048eb0:	89 c3                	mov    %eax,%ebx
 8048eb2:	74 60                	je     8048f14 <Gets+0xa4>
 8048eb4:	83 f8 0a             	cmp    $0xa,%eax
 8048eb7:	74 5b                	je     8048f14 <Gets+0xa4>
 8048eb9:	e8 26 f8 ff ff       	call   80486e4 <__ctype_b_loc@plt>
 8048ebe:	8b 00                	mov    (%eax),%eax
 8048ec0:	f6 44 58 01 10       	testb  $0x10,0x1(%eax,%ebx,2)
 8048ec5:	74 d9                	je     8048ea0 <Gets+0x30>
 8048ec7:	8d 43 d0             	lea    0xffffffd0(%ebx),%eax
 8048eca:	83 f8 09             	cmp    $0x9,%eax
 8048ecd:	89 c2                	mov    %eax,%edx
 8048ecf:	76 0f                	jbe    8048ee0 <Gets+0x70>
 8048ed1:	8d 43 bf             	lea    0xffffffbf(%ebx),%eax
 8048ed4:	83 f8 05             	cmp    $0x5,%eax
 8048ed7:	8d 53 c9             	lea    0xffffffc9(%ebx),%edx
 8048eda:	76 04                	jbe    8048ee0 <Gets+0x70>
 8048edc:	8d 53 a9             	lea    0xffffffa9(%ebx),%edx
 8048edf:	90                   	nop    
 8048ee0:	85 ff                	test   %edi,%edi
 8048ee2:	74 4c                	je     8048f30 <Gets+0xc0>
 8048ee4:	31 ff                	xor    %edi,%edi
 8048ee6:	89 55 f0             	mov    %edx,0xfffffff0(%ebp)
 8048ee9:	eb b5                	jmp    8048ea0 <Gets+0x30>
 8048eeb:	90                   	nop    
 8048eec:	8d 74 26 00          	lea    0x0(%esi),%esi
 8048ef0:	83 f8 0a             	cmp    $0xa,%eax
 8048ef3:	74 1f                	je     8048f14 <Gets+0xa4>
 8048ef5:	88 06                	mov    %al,(%esi)
 8048ef7:	0f be c0             	movsbl %al,%eax
 8048efa:	83 c6 01             	add    $0x1,%esi
 8048efd:	e8 ee f9 ff ff       	call   80488f0 <save_char>
 8048f02:	a1 a0 a1 04 08       	mov    0x804a1a0,%eax
 8048f07:	89 04 24             	mov    %eax,(%esp)
 8048f0a:	e8 c5 f7 ff ff       	call   80486d4 <_IO_getc@plt>
 8048f0f:	83 f8 ff             	cmp    $0xffffffff,%eax
 8048f12:	75 dc                	jne    8048ef0 <Gets+0x80>
 8048f14:	c6 06 00             	movb   $0x0,(%esi)
 8048f17:	a1 c0 a1 04 08       	mov    0x804a1c0,%eax
 8048f1c:	c6 84 40 e0 a1 04 08 	movb   $0x0,0x804a1e0(%eax,%eax,2)
 8048f23:	00 
 8048f24:	8b 45 08             	mov    0x8(%ebp),%eax
 8048f27:	83 c4 0c             	add    $0xc,%esp
 8048f2a:	5b                   	pop    %ebx
 8048f2b:	5e                   	pop    %esi
 8048f2c:	5f                   	pop    %edi
 8048f2d:	5d                   	pop    %ebp
 8048f2e:	c3                   	ret    
 8048f2f:	90                   	nop    
 8048f30:	8b 45 f0             	mov    0xfffffff0(%ebp),%eax
 8048f33:	bf 01 00 00 00       	mov    $0x1,%edi
 8048f38:	c1 e0 04             	shl    $0x4,%eax
 8048f3b:	8d 04 02             	lea    (%edx,%eax,1),%eax
 8048f3e:	88 06                	mov    %al,(%esi)
 8048f40:	0f be c0             	movsbl %al,%eax
 8048f43:	83 c6 01             	add    $0x1,%esi
 8048f46:	e8 a5 f9 ff ff       	call   80488f0 <save_char>
 8048f4b:	e9 50 ff ff ff       	jmp    8048ea0 <Gets+0x30>

08048f50 <getbufn>:
 8048f50:	55                   	push   %ebp
 8048f51:	89 e5                	mov    %esp,%ebp
 8048f53:	81 ec 08 02 00 00    	sub    $0x208,%esp
 8048f59:	8d 85 00 fe ff ff    	lea    0xfffffe00(%ebp),%eax
 8048f5f:	89 04 24             	mov    %eax,(%esp)
 8048f62:	e8 09 ff ff ff       	call   8048e70 <Gets>
 8048f67:	b8 01 00 00 00       	mov    $0x1,%eax
 8048f6c:	c9                   	leave  
 8048f6d:	c3                   	ret    
 8048f6e:	66 90                	xchg   %ax,%ax

08048f70 <testn>:
 8048f70:	55                   	push   %ebp
 8048f71:	89 e5                	mov    %esp,%ebp
 8048f73:	83 ec 18             	sub    $0x18,%esp
 8048f76:	c7 45 fc ef be ad de 	movl   $0xdeadbeef,0xfffffffc(%ebp)
 8048f7d:	c7 04 24 04 00 00 00 	movl   $0x4,(%esp)
 8048f84:	e8 b7 f9 ff ff       	call   8048940 <entry_check>
 8048f89:	e8 c2 ff ff ff       	call   8048f50 <getbufn>
 8048f8e:	89 c2                	mov    %eax,%edx
 8048f90:	8b 45 fc             	mov    0xfffffffc(%ebp),%eax
 8048f93:	3d ef be ad de       	cmp    $0xdeadbeef,%eax
 8048f98:	74 0e                	je     8048fa8 <testn+0x38>
 8048f9a:	c7 04 24 f0 97 04 08 	movl   $0x80497f0,(%esp)
 8048fa1:	e8 0e f8 ff ff       	call   80487b4 <puts@plt>
 8048fa6:	c9                   	leave  
 8048fa7:	c3                   	ret    
 8048fa8:	3b 15 ac a1 04 08    	cmp    0x804a1ac,%edx
 8048fae:	74 12                	je     8048fc2 <testn+0x52>
 8048fb0:	89 54 24 04          	mov    %edx,0x4(%esp)
 8048fb4:	c7 04 24 ae 99 04 08 	movl   $0x80499ae,(%esp)
 8048fbb:	e8 84 f7 ff ff       	call   8048744 <printf@plt>
 8048fc0:	c9                   	leave  
 8048fc1:	c3                   	ret    
 8048fc2:	89 54 24 04          	mov    %edx,0x4(%esp)
 8048fc6:	c7 04 24 1c 98 04 08 	movl   $0x804981c,(%esp)
 8048fcd:	e8 72 f7 ff ff       	call   8048744 <printf@plt>
 8048fd2:	c7 04 24 04 00 00 00 	movl   $0x4,(%esp)
 8048fd9:	e8 a2 fa ff ff       	call   8048a80 <validate>
 8048fde:	c9                   	leave  
 8048fdf:	c3                   	ret    

08048fe0 <getbuf>:
 8048fe0:	55                   	push   %ebp
 8048fe1:	89 e5                	mov    %esp,%ebp
 8048fe3:	83 ec 18             	sub    $0x18,%esp
 8048fe6:	8d 45 f4             	lea    0xfffffff4(%ebp),%eax
 8048fe9:	89 04 24             	mov    %eax,(%esp)
 8048fec:	e8 7f fe ff ff       	call   8048e70 <Gets>
 8048ff1:	b8 01 00 00 00       	mov    $0x1,%eax
 8048ff6:	c9                   	leave  
 8048ff7:	c3                   	ret    
 8048ff8:	90                   	nop    
 8048ff9:	8d b4 26 00 00 00 00 	lea    0x0(%esi),%esi

08049000 <test>:
 8049000:	55                   	push   %ebp
 8049001:	89 e5                	mov    %esp,%ebp
 8049003:	83 ec 18             	sub    $0x18,%esp
 8049006:	c7 45 fc ef be ad de 	movl   $0xdeadbeef,0xfffffffc(%ebp)
 804900d:	c7 04 24 03 00 00 00 	movl   $0x3,(%esp)
 8049014:	e8 27 f9 ff ff       	call   8048940 <entry_check>
 8049019:	e8 c2 ff ff ff       	call   8048fe0 <getbuf>
 804901e:	89 c2                	mov    %eax,%edx
 8049020:	8b 45 fc             	mov    0xfffffffc(%ebp),%eax
 8049023:	3d ef be ad de       	cmp    $0xdeadbeef,%eax
 8049028:	74 0e                	je     8049038 <test+0x38>
 804902a:	c7 04 24 f0 97 04 08 	movl   $0x80497f0,(%esp)
 8049031:	e8 7e f7 ff ff       	call   80487b4 <puts@plt>
 8049036:	c9                   	leave  
 8049037:	c3                   	ret    
 8049038:	3b 15 ac a1 04 08    	cmp    0x804a1ac,%edx
 804903e:	74 12                	je     8049052 <test+0x52>
 8049040:	89 54 24 04          	mov    %edx,0x4(%esp)
 8049044:	c7 04 24 e7 99 04 08 	movl   $0x80499e7,(%esp)
 804904b:	e8 f4 f6 ff ff       	call   8048744 <printf@plt>
 8049050:	c9                   	leave  
 8049051:	c3                   	ret    
 8049052:	89 54 24 04          	mov    %edx,0x4(%esp)
 8049056:	c7 04 24 ca 99 04 08 	movl   $0x80499ca,(%esp)
 804905d:	e8 e2 f6 ff ff       	call   8048744 <printf@plt>
 8049062:	c7 04 24 03 00 00 00 	movl   $0x3,(%esp)
 8049069:	e8 12 fa ff ff       	call   8048a80 <validate>
 804906e:	c9                   	leave  
 804906f:	c3                   	ret    

08049070 <launch>:
 8049070:	55                   	push   %ebp
 8049071:	89 e5                	mov    %esp,%ebp
 8049073:	53                   	push   %ebx
 8049074:	89 c3                	mov    %eax,%ebx
 8049076:	8d 45 bc             	lea    0xffffffbc(%ebp),%eax
 8049079:	83 ec 54             	sub    $0x54,%esp
 804907c:	25 f8 3f 00 00       	and    $0x3ff8,%eax
 8049081:	01 c2                	add    %eax,%edx
 8049083:	8d 42 1e             	lea    0x1e(%edx),%eax
 8049086:	83 e0 f0             	and    $0xfffffff0,%eax
 8049089:	29 c4                	sub    %eax,%esp
 804908b:	8d 44 24 1b          	lea    0x1b(%esp),%eax
 804908f:	83 e0 f0             	and    $0xfffffff0,%eax
 8049092:	89 54 24 08          	mov    %edx,0x8(%esp)
 8049096:	c7 44 24 04 f4 00 00 	movl   $0xf4,0x4(%esp)
 804909d:	00 
 804909e:	89 04 24             	mov    %eax,(%esp)
 80490a1:	e8 0e f6 ff ff       	call   80486b4 <memset@plt>
 80490a6:	a1 a4 a1 04 08       	mov    0x804a1a4,%eax
 80490ab:	85 c0                	test   %eax,%eax
 80490ad:	75 15                	jne    80490c4 <launch+0x54>
 80490af:	a1 a8 a1 04 08       	mov    0x804a1a8,%eax
 80490b4:	85 c0                	test   %eax,%eax
 80490b6:	75 40                	jne    80490f8 <launch+0x88>
 80490b8:	c7 04 24 13 9a 04 08 	movl   $0x8049a13,(%esp)
 80490bf:	e8 80 f6 ff ff       	call   8048744 <printf@plt>
 80490c4:	85 db                	test   %ebx,%ebx
 80490c6:	74 29                	je     80490f1 <launch+0x81>
 80490c8:	e8 a3 fe ff ff       	call   8048f70 <testn>
 80490cd:	a1 b8 a1 04 08       	mov    0x804a1b8,%eax
 80490d2:	85 c0                	test   %eax,%eax
 80490d4:	75 16                	jne    80490ec <launch+0x7c>
 80490d6:	c7 04 24 64 98 04 08 	movl   $0x8049864,(%esp)
 80490dd:	e8 d2 f6 ff ff       	call   80487b4 <puts@plt>
 80490e2:	c7 05 b8 a1 04 08 00 	movl   $0x0,0x804a1b8
 80490e9:	00 00 00 
 80490ec:	8b 5d fc             	mov    0xfffffffc(%ebp),%ebx
 80490ef:	c9                   	leave  
 80490f0:	c3                   	ret    
 80490f1:	e8 0a ff ff ff       	call   8049000 <test>
 80490f6:	eb d5                	jmp    80490cd <launch+0x5d>
 80490f8:	c7 04 24 02 9a 04 08 	movl   $0x8049a02,(%esp)
 80490ff:	e8 40 f6 ff ff       	call   8048744 <printf@plt>
 8049104:	eb be                	jmp    80490c4 <launch+0x54>
 8049106:	8d 76 00             	lea    0x0(%esi),%esi
 8049109:	8d bc 27 00 00 00 00 	lea    0x0(%edi),%edi

08049110 <main>:
 8049110:	8d 4c 24 04          	lea    0x4(%esp),%ecx
 8049114:	83 e4 f0             	and    $0xfffffff0,%esp
 8049117:	ff 71 fc             	pushl  0xfffffffc(%ecx)
 804911a:	55                   	push   %ebp
 804911b:	89 e5                	mov    %esp,%ebp
 804911d:	57                   	push   %edi
 804911e:	56                   	push   %esi
 804911f:	53                   	push   %ebx
 8049120:	51                   	push   %ecx
 8049121:	83 ec 18             	sub    $0x18,%esp
 8049124:	8b 31                	mov    (%ecx),%esi
 8049126:	8b 59 04             	mov    0x4(%ecx),%ebx
 8049129:	c7 44 24 04 c0 89 04 	movl   $0x80489c0,0x4(%esp)
 8049130:	08 
 8049131:	c7 04 24 0b 00 00 00 	movl   $0xb,(%esp)
 8049138:	e8 37 f5 ff ff       	call   8048674 <signal@plt>
 804913d:	c7 44 24 04 f0 89 04 	movl   $0x80489f0,0x4(%esp)
 8049144:	08 
 8049145:	c7 04 24 07 00 00 00 	movl   $0x7,(%esp)
 804914c:	e8 23 f5 ff ff       	call   8048674 <signal@plt>
 8049151:	c7 44 24 04 80 89 04 	movl   $0x8048980,0x4(%esp)
 8049158:	08 
 8049159:	c7 04 24 0e 00 00 00 	movl   $0xe,(%esp)
 8049160:	e8 0f f5 ff ff       	call   8048674 <signal@plt>
 8049165:	c7 44 24 04 50 89 04 	movl   $0x8048950,0x4(%esp)
 804916c:	08 
 804916d:	c7 04 24 04 00 00 00 	movl   $0x4,(%esp)
 8049174:	e8 fb f4 ff ff       	call   8048674 <signal@plt>
 8049179:	a1 80 a1 04 08       	mov    0x804a180,%eax
 804917e:	c7 45 e8 00 00 00 00 	movl   $0x0,0xffffffe8(%ebp)
 8049185:	c7 45 ec 01 00 00 00 	movl   $0x1,0xffffffec(%ebp)
 804918c:	a3 a0 a1 04 08       	mov    %eax,0x804a1a0
 8049191:	c7 44 24 08 4f 9a 04 	movl   $0x8049a4f,0x8(%esp)
 8049198:	08 
 8049199:	89 5c 24 04          	mov    %ebx,0x4(%esp)
 804919d:	89 34 24             	mov    %esi,(%esp)
 80491a0:	e8 5f f5 ff ff       	call   8048704 <getopt@plt>
 80491a5:	3c ff                	cmp    $0xff,%al
 80491a7:	0f 84 04 01 00 00    	je     80492b1 <main+0x1a1>
 80491ad:	83 e8 66             	sub    $0x66,%eax
 80491b0:	3c 12                	cmp    $0x12,%al
 80491b2:	77 0c                	ja     80491c0 <main+0xb0>
 80491b4:	0f b6 c0             	movzbl %al,%eax
 80491b7:	ff 24 85 58 9a 04 08 	jmp    *0x8049a58(,%eax,4)
 80491be:	66 90                	xchg   %ax,%ax
 80491c0:	8b 03                	mov    (%ebx),%eax
 80491c2:	e8 59 f8 ff ff       	call   8048a20 <usage>
 80491c7:	eb c8                	jmp    8049191 <main+0x81>
 80491c9:	c7 05 b4 a1 04 08 01 	movl   $0x1,0x804a1b4
 80491d0:	00 00 00 
 80491d3:	c7 05 a4 a1 04 08 01 	movl   $0x1,0x804a1a4
 80491da:	00 00 00 
 80491dd:	c7 05 68 a1 04 08 01 	movl   $0x1,0x804a168
 80491e4:	00 00 00 
 80491e7:	eb a8                	jmp    8049191 <main+0x81>
 80491e9:	c7 44 24 04 38 9a 04 	movl   $0x8049a38,0x4(%esp)
 80491f0:	08 
 80491f1:	a1 84 a1 04 08       	mov    0x804a184,%eax
 80491f6:	89 04 24             	mov    %eax,(%esp)
 80491f9:	e8 16 f5 ff ff       	call   8048714 <fopen@plt>
 80491fe:	85 c0                	test   %eax,%eax
 8049200:	a3 a0 a1 04 08       	mov    %eax,0x804a1a0
 8049205:	75 8a                	jne    8049191 <main+0x81>
 8049207:	a1 84 a1 04 08       	mov    0x804a184,%eax
 804920c:	c7 04 24 3a 9a 04 08 	movl   $0x8049a3a,(%esp)
 8049213:	89 44 24 04          	mov    %eax,0x4(%esp)
 8049217:	e8 28 f5 ff ff       	call   8048744 <printf@plt>
 804921c:	8b 03                	mov    (%ebx),%eax
 804921e:	e8 fd f7 ff ff       	call   8048a20 <usage>
 8049223:	e9 69 ff ff ff       	jmp    8049191 <main+0x81>
 8049228:	c7 45 e8 01 00 00 00 	movl   $0x1,0xffffffe8(%ebp)
 804922f:	c7 45 ec 05 00 00 00 	movl   $0x5,0xffffffec(%ebp)
 8049236:	e9 56 ff ff ff       	jmp    8049191 <main+0x81>
 804923b:	c7 05 a4 a1 04 08 01 	movl   $0x1,0x804a1a4
 8049242:	00 00 00 
 8049245:	e9 47 ff ff ff       	jmp    8049191 <main+0x81>
 804924a:	c7 05 60 a1 04 08 01 	movl   $0x1,0x804a160
 8049251:	00 00 00 
 8049254:	e9 38 ff ff ff       	jmp    8049191 <main+0x81>
 8049259:	a1 84 a1 04 08       	mov    0x804a184,%eax
 804925e:	89 04 24             	mov    %eax,(%esp)
 8049261:	e8 7e f5 ff ff       	call   80487e4 <__strdup@plt>
 8049266:	a3 b0 a1 04 08       	mov    %eax,0x804a1b0
 804926b:	89 44 24 04          	mov    %eax,0x4(%esp)
 804926f:	c7 04 24 20 9a 04 08 	movl   $0x8049a20,(%esp)
 8049276:	e8 c9 f4 ff ff       	call   8048744 <printf@plt>
 804927b:	a1 b0 a1 04 08       	mov    0x804a1b0,%eax
 8049280:	89 04 24             	mov    %eax,(%esp)
 8049283:	e8 88 01 00 00       	call   8049410 <gencookie>
 8049288:	a3 ac a1 04 08       	mov    %eax,0x804a1ac
 804928d:	89 44 24 04          	mov    %eax,0x4(%esp)
 8049291:	c7 04 24 2a 9a 04 08 	movl   $0x8049a2a,(%esp)
 8049298:	e8 a7 f4 ff ff       	call   8048744 <printf@plt>
 804929d:	e9 ef fe ff ff       	jmp    8049191 <main+0x81>
 80492a2:	c7 05 a8 a1 04 08 01 	movl   $0x1,0x804a1a8
 80492a9:	00 00 00 
 80492ac:	e9 e0 fe ff ff       	jmp    8049191 <main+0x81>
 80492b1:	a1 b0 a1 04 08       	mov    0x804a1b0,%eax
 80492b6:	85 c0                	test   %eax,%eax
 80492b8:	0f 84 d2 00 00 00    	je     8049390 <main+0x280>
 80492be:	a1 ac a1 04 08       	mov    0x804a1ac,%eax
 80492c3:	89 04 24             	mov    %eax,(%esp)
 80492c6:	e8 89 f4 ff ff       	call   8048754 <srandom@plt>
 80492cb:	e8 94 f3 ff ff       	call   8048664 <random@plt>
 80492d0:	25 f8 0f 00 00       	and    $0xff8,%eax
 80492d5:	89 45 e4             	mov    %eax,0xffffffe4(%ebp)
 80492d8:	c7 44 24 04 04 00 00 	movl   $0x4,0x4(%esp)
 80492df:	00 
 80492e0:	8b 45 ec             	mov    0xffffffec(%ebp),%eax
 80492e3:	89 04 24             	mov    %eax,(%esp)
 80492e6:	e8 a9 f3 ff ff       	call   8048694 <calloc@plt>
 80492eb:	89 c7                	mov    %eax,%edi
 80492ed:	8b 45 ec             	mov    0xffffffec(%ebp),%eax
 80492f0:	83 e8 02             	sub    $0x2,%eax
 80492f3:	85 c0                	test   %eax,%eax
 80492f5:	7e 1e                	jle    8049315 <main+0x205>
 80492f7:	8b 45 ec             	mov    0xffffffec(%ebp),%eax
 80492fa:	bb 01 00 00 00       	mov    $0x1,%ebx
 80492ff:	8d 70 ff             	lea    0xffffffff(%eax),%esi
 8049302:	e8 5d f3 ff ff       	call   8048664 <random@plt>
 8049307:	83 e0 38             	and    $0x38,%eax
 804930a:	89 44 9f fc          	mov    %eax,0xfffffffc(%edi,%ebx,4)
 804930e:	83 c3 01             	add    $0x1,%ebx
 8049311:	39 f3                	cmp    %esi,%ebx
 8049313:	75 ed                	jne    8049302 <main+0x1f2>
 8049315:	83 7d ec 01          	cmpl   $0x1,0xffffffec(%ebp)
 8049319:	7e 49                	jle    8049364 <main+0x254>
 804931b:	8b 45 ec             	mov    0xffffffec(%ebp),%eax
 804931e:	c1 e0 02             	shl    $0x2,%eax
 8049321:	c7 44 07 f8 38 00 00 	movl   $0x38,0xfffffff8(%edi,%eax,1)
 8049328:	00 
 8049329:	c7 44 07 fc 00 00 00 	movl   $0x0,0xfffffffc(%edi,%eax,1)
 8049330:	00 
 8049331:	a1 68 a1 04 08       	mov    0x804a168,%eax
 8049336:	89 04 24             	mov    %eax,(%esp)
 8049339:	e8 e6 f3 ff ff       	call   8048724 <alarm@plt>
 804933e:	31 db                	xor    %ebx,%ebx
 8049340:	8b 55 e4             	mov    0xffffffe4(%ebp),%edx
 8049343:	8b 45 e8             	mov    0xffffffe8(%ebp),%eax
 8049346:	03 14 9f             	add    (%edi,%ebx,4),%edx
 8049349:	83 c3 01             	add    $0x1,%ebx
 804934c:	e8 1f fd ff ff       	call   8049070 <launch>
 8049351:	3b 5d ec             	cmp    0xffffffec(%ebp),%ebx
 8049354:	7c ea                	jl     8049340 <main+0x230>
 8049356:	83 c4 18             	add    $0x18,%esp
 8049359:	31 c0                	xor    %eax,%eax
 804935b:	59                   	pop    %ecx
 804935c:	5b                   	pop    %ebx
 804935d:	5e                   	pop    %esi
 804935e:	5f                   	pop    %edi
 804935f:	5d                   	pop    %ebp
 8049360:	8d 61 fc             	lea    0xfffffffc(%ecx),%esp
 8049363:	c3                   	ret    
 8049364:	8b 45 ec             	mov    0xffffffec(%ebp),%eax
 8049367:	c7 44 87 fc 00 00 00 	movl   $0x0,0xfffffffc(%edi,%eax,4)
 804936e:	00 
 804936f:	a1 68 a1 04 08       	mov    0x804a168,%eax
 8049374:	89 04 24             	mov    %eax,(%esp)
 8049377:	e8 a8 f3 ff ff       	call   8048724 <alarm@plt>
 804937c:	83 7d ec 01          	cmpl   $0x1,0xffffffec(%ebp)
 8049380:	74 bc                	je     804933e <main+0x22e>
 8049382:	83 c4 18             	add    $0x18,%esp
 8049385:	31 c0                	xor    %eax,%eax
 8049387:	59                   	pop    %ecx
 8049388:	5b                   	pop    %ebx
 8049389:	5e                   	pop    %esi
 804938a:	5f                   	pop    %edi
 804938b:	5d                   	pop    %ebp
 804938c:	8d 61 fc             	lea    0xfffffffc(%ecx),%esp
 804938f:	c3                   	ret    
 8049390:	c7 04 24 3c 98 04 08 	movl   $0x804983c,(%esp)
 8049397:	e8 18 f4 ff ff       	call   80487b4 <puts@plt>
 804939c:	8b 03                	mov    (%ebx),%eax
 804939e:	e8 7d f6 ff ff       	call   8048a20 <usage>
 80493a3:	e9 16 ff ff ff       	jmp    80492be <main+0x1ae>
 80493a8:	90                   	nop    
 80493a9:	90                   	nop    
 80493aa:	90                   	nop    
 80493ab:	90                   	nop    
 80493ac:	90                   	nop    
 80493ad:	90                   	nop    
 80493ae:	90                   	nop    
 80493af:	90                   	nop    

080493b0 <hash>:
 80493b0:	55                   	push   %ebp
 80493b1:	31 c0                	xor    %eax,%eax
 80493b3:	89 e5                	mov    %esp,%ebp
 80493b5:	8b 4d 08             	mov    0x8(%ebp),%ecx
 80493b8:	0f b6 11             	movzbl (%ecx),%edx
 80493bb:	84 d2                	test   %dl,%dl
 80493bd:	74 15                	je     80493d4 <hash+0x24>
 80493bf:	90                   	nop    
 80493c0:	6b c0 67             	imul   $0x67,%eax,%eax
 80493c3:	0f be d2             	movsbl %dl,%edx
 80493c6:	8d 04 02             	lea    (%edx,%eax,1),%eax
 80493c9:	0f b6 51 01          	movzbl 0x1(%ecx),%edx
 80493cd:	83 c1 01             	add    $0x1,%ecx
 80493d0:	84 d2                	test   %dl,%dl
 80493d2:	75 ec                	jne    80493c0 <hash+0x10>
 80493d4:	5d                   	pop    %ebp
 80493d5:	c3                   	ret    
 80493d6:	8d 76 00             	lea    0x0(%esi),%esi
 80493d9:	8d bc 27 00 00 00 00 	lea    0x0(%edi),%edi

080493e0 <check>:
 80493e0:	55                   	push   %ebp
 80493e1:	89 e5                	mov    %esp,%ebp
 80493e3:	8b 55 08             	mov    0x8(%ebp),%edx
 80493e6:	89 d0                	mov    %edx,%eax
 80493e8:	c1 e8 1c             	shr    $0x1c,%eax
 80493eb:	85 c0                	test   %eax,%eax
 80493ed:	74 19                	je     8049408 <check+0x28>
 80493ef:	31 c9                	xor    %ecx,%ecx
 80493f1:	89 d0                	mov    %edx,%eax
 80493f3:	d3 e8                	shr    %cl,%eax
 80493f5:	3c 0a                	cmp    $0xa,%al
 80493f7:	74 0f                	je     8049408 <check+0x28>
 80493f9:	83 c1 08             	add    $0x8,%ecx
 80493fc:	83 f9 20             	cmp    $0x20,%ecx
 80493ff:	75 f0                	jne    80493f1 <check+0x11>
 8049401:	5d                   	pop    %ebp
 8049402:	b8 01 00 00 00       	mov    $0x1,%eax
 8049407:	c3                   	ret    
 8049408:	5d                   	pop    %ebp
 8049409:	31 c0                	xor    %eax,%eax
 804940b:	c3                   	ret    
 804940c:	8d 74 26 00          	lea    0x0(%esi),%esi

08049410 <gencookie>:
 8049410:	55                   	push   %ebp
 8049411:	89 e5                	mov    %esp,%ebp
 8049413:	53                   	push   %ebx
 8049414:	83 ec 04             	sub    $0x4,%esp
 8049417:	8b 45 08             	mov    0x8(%ebp),%eax
 804941a:	89 04 24             	mov    %eax,(%esp)
 804941d:	e8 8e ff ff ff       	call   80493b0 <hash>
 8049422:	89 04 24             	mov    %eax,(%esp)
 8049425:	e8 2a f2 ff ff       	call   8048654 <srand@plt>
 804942a:	8d b6 00 00 00 00    	lea    0x0(%esi),%esi
 8049430:	e8 8f f3 ff ff       	call   80487c4 <rand@plt>
 8049435:	89 c3                	mov    %eax,%ebx
 8049437:	89 04 24             	mov    %eax,(%esp)
 804943a:	e8 a1 ff ff ff       	call   80493e0 <check>
 804943f:	85 c0                	test   %eax,%eax
 8049441:	74 ed                	je     8049430 <gencookie+0x20>
 8049443:	89 d8                	mov    %ebx,%eax
 8049445:	83 c4 04             	add    $0x4,%esp
 8049448:	5b                   	pop    %ebx
 8049449:	5d                   	pop    %ebp
 804944a:	c3                   	ret    
 804944b:	90                   	nop    
 804944c:	90                   	nop    
 804944d:	90                   	nop    
 804944e:	90                   	nop    
 804944f:	90                   	nop    

08049450 <__libc_csu_fini>:
 8049450:	55                   	push   %ebp
 8049451:	89 e5                	mov    %esp,%ebp
 8049453:	5d                   	pop    %ebp
 8049454:	c3                   	ret    
 8049455:	8d 74 26 00          	lea    0x0(%esi),%esi
 8049459:	8d bc 27 00 00 00 00 	lea    0x0(%edi),%edi

08049460 <__libc_csu_init>:
 8049460:	55                   	push   %ebp
 8049461:	89 e5                	mov    %esp,%ebp
 8049463:	57                   	push   %edi
 8049464:	56                   	push   %esi
 8049465:	53                   	push   %ebx
 8049466:	e8 5e 00 00 00       	call   80494c9 <__i686.get_pc_thunk.bx>
 804946b:	81 c3 75 0c 00 00    	add    $0xc75,%ebx
 8049471:	83 ec 1c             	sub    $0x1c,%esp
 8049474:	e8 a3 f1 ff ff       	call   804861c <_init>
 8049479:	8d 83 20 ff ff ff    	lea    0xffffff20(%ebx),%eax
 804947f:	89 45 f0             	mov    %eax,0xfffffff0(%ebp)
 8049482:	8d 83 20 ff ff ff    	lea    0xffffff20(%ebx),%eax
 8049488:	29 45 f0             	sub    %eax,0xfffffff0(%ebp)
 804948b:	c1 7d f0 02          	sarl   $0x2,0xfffffff0(%ebp)
 804948f:	8b 55 f0             	mov    0xfffffff0(%ebp),%edx
 8049492:	85 d2                	test   %edx,%edx
 8049494:	74 2b                	je     80494c1 <__libc_csu_init+0x61>
 8049496:	31 ff                	xor    %edi,%edi
 8049498:	89 c6                	mov    %eax,%esi
 804949a:	8d b6 00 00 00 00    	lea    0x0(%esi),%esi
 80494a0:	8b 45 10             	mov    0x10(%ebp),%eax
 80494a3:	83 c7 01             	add    $0x1,%edi
 80494a6:	89 44 24 08          	mov    %eax,0x8(%esp)
 80494aa:	8b 45 0c             	mov    0xc(%ebp),%eax
 80494ad:	89 44 24 04          	mov    %eax,0x4(%esp)
 80494b1:	8b 45 08             	mov    0x8(%ebp),%eax
 80494b4:	89 04 24             	mov    %eax,(%esp)
 80494b7:	ff 16                	call   *(%esi)
 80494b9:	83 c6 04             	add    $0x4,%esi
 80494bc:	39 7d f0             	cmp    %edi,0xfffffff0(%ebp)
 80494bf:	75 df                	jne    80494a0 <__libc_csu_init+0x40>
 80494c1:	83 c4 1c             	add    $0x1c,%esp
 80494c4:	5b                   	pop    %ebx
 80494c5:	5e                   	pop    %esi
 80494c6:	5f                   	pop    %edi
 80494c7:	5d                   	pop    %ebp
 80494c8:	c3                   	ret    

080494c9 <__i686.get_pc_thunk.bx>:
 80494c9:	8b 1c 24             	mov    (%esp),%ebx
 80494cc:	c3                   	ret    
 80494cd:	90                   	nop    
 80494ce:	90                   	nop    
 80494cf:	90                   	nop    

080494d0 <__do_global_ctors_aux>:
 80494d0:	55                   	push   %ebp
 80494d1:	89 e5                	mov    %esp,%ebp
 80494d3:	53                   	push   %ebx
 80494d4:	bb 00 a0 04 08       	mov    $0x804a000,%ebx
 80494d9:	83 ec 04             	sub    $0x4,%esp
 80494dc:	a1 00 a0 04 08       	mov    0x804a000,%eax
 80494e1:	83 f8 ff             	cmp    $0xffffffff,%eax
 80494e4:	74 0c                	je     80494f2 <__do_global_ctors_aux+0x22>
 80494e6:	83 eb 04             	sub    $0x4,%ebx
 80494e9:	ff d0                	call   *%eax
 80494eb:	8b 03                	mov    (%ebx),%eax
 80494ed:	83 f8 ff             	cmp    $0xffffffff,%eax
 80494f0:	75 f4                	jne    80494e6 <__do_global_ctors_aux+0x16>
 80494f2:	83 c4 04             	add    $0x4,%esp
 80494f5:	5b                   	pop    %ebx
 80494f6:	5d                   	pop    %ebp
 80494f7:	c3                   	ret    
Disassembly of section .fini:

080494f8 <_fini>:
 80494f8:	55                   	push   %ebp
 80494f9:	89 e5                	mov    %esp,%ebp
 80494fb:	53                   	push   %ebx
 80494fc:	83 ec 04             	sub    $0x4,%esp
 80494ff:	e8 00 00 00 00       	call   8049504 <_fini+0xc>
 8049504:	5b                   	pop    %ebx
 8049505:	81 c3 dc 0b 00 00    	add    $0xbdc,%ebx
 804950b:	e8 50 f3 ff ff       	call   8048860 <__do_global_dtors_aux>
 8049510:	59                   	pop    %ecx
 8049511:	5b                   	pop    %ebx
 8049512:	c9                   	leave  
 8049513:	c3                   	ret    
